; Function Attrs: nounwind uwtable
define void @Vta_ManProfileAddition(ptr noundef readonly captures(none) %0, ptr noundef readonly captures(none) %1) local_unnamed_addr #0 {
  %3 = getelementptr inbounds nuw i8, ptr %0, i64 8
  %4 = load ptr, ptr %3, align 8, !tbaa !55
  %5 = getelementptr inbounds nuw i8, ptr %4, i64 120
  %6 = load i32, ptr %5, align 8, !tbaa !56
  %7 = add nsw i32 %6, 1
  %8 = sext i32 %7 to i64
  %9 = tail call noalias ptr @calloc(i64 noundef %8, i64 noundef 4) #27
  %10 = getelementptr inbounds nuw i8, ptr %0, i64 40
  %11 = getelementptr i8, ptr %1, i64 4
  %.val18 = load i32, ptr %11, align 4, !tbaa !15
  %12 = icmp sgt i32 %.val18, 0
  br i1 %12, label %.lr.ph, label %.critedge

.lr.ph:                                           ; preds = %2
  %13 = getelementptr i8, ptr %1, i64 8
  %.val = load ptr, ptr %13, align 8, !tbaa !3
  %wide.trip.count = zext nneg i32 %.val18 to i64
  br label %14

14:                                               ; preds = %.lr.ph, %19
  %indvars.iv = phi i64 [ 0, %.lr.ph ], [ %indvars.iv.next, %19 ]
  %15 = getelementptr inbounds nuw i32, ptr %.val, i64 %indvars.iv
  %16 = load i32, ptr %15, align 4, !tbaa !10
  %.not.i = icmp eq i32 %16, 0
  br i1 %.not.i, label %.critedge, label %Vta_ManObj.exit

Vta_ManObj.exit:                                  ; preds = %14
  %17 = load ptr, ptr %0, align 8, !tbaa !30
  %18 = getelementptr i8, ptr %17, i64 32
  %.val19 = load ptr, ptr %18, align 8, !tbaa !63
  %.not16 = icmp eq ptr %.val19, null
  br i1 %.not16, label %.critedge, label %19

19:                                               ; preds = %Vta_ManObj.exit
  %20 = sext i32 %16 to i64
  %21 = load ptr, ptr %10, align 8, !tbaa !62
  %22 = getelementptr inbounds %struct.Vta_Obj_t_, ptr %21, i64 %20, i32 1
  %23 = load i32, ptr %22, align 4, !tbaa !80
  %24 = sext i32 %23 to i64
  %25 = getelementptr inbounds i32, ptr %9, i64 %24
  %26 = load i32, ptr %25, align 4, !tbaa !10
  %27 = add nsw i32 %26, 1
  store i32 %27, ptr %25, align 4, !tbaa !10
  %indvars.iv.next = add nuw nsw i64 %indvars.iv, 1
  %exitcond.not = icmp eq i64 %indvars.iv.next, %wide.trip.count
  br i1 %exitcond.not, label %.critedge, label %14, !llvm.loop !95

.critedge:                                        ; preds = %Vta_ManObj.exit, %19, %14, %2
  %.not1723 = icmp slt i32 %6, 0
  br i1 %.not1723, label %._crit_edge, label %.lr.ph25

.lr.ph25:                                         ; preds = %.critedge, %.lr.ph25
  %indvars.iv27 = phi i64 [ %indvars.iv.next28, %.lr.ph25 ], [ 0, %.critedge ]
  %28 = getelementptr inbounds nuw i32, ptr %9, i64 %indvars.iv27
  %29 = load i32, ptr %28, align 4, !tbaa !10
  tail call void (i32, ptr, ...) @Abc_Print(i32 poison, ptr noundef nonnull @.str, i32 noundef %29)
  %indvars.iv.next28 = add nuw nsw i64 %indvars.iv27, 1
  %30 = load ptr, ptr %3, align 8, !tbaa !55
  %31 = getelementptr inbounds nuw i8, ptr %30, i64 120
  %32 = load i32, ptr %31, align 8, !tbaa !56
  %33 = sext i32 %32 to i64
  %.not17.not = icmp slt i64 %indvars.iv27, %33
  br i1 %.not17.not, label %.lr.ph25, label %._crit_edge, !llvm.loop !96

._crit_edge:                                      ; preds = %.lr.ph25, %.critedge
  tail call void (i32, ptr, ...) @Abc_Print(i32 poison, ptr noundef nonnull @.str.1)
  ret void
}